; Function Attrs: nounwind uwtable
define zeroext range(i8 0, 2) i8 @l_Lean_isExtern(ptr noundef %0, ptr noundef %1) local_unnamed_addr #0 {
  %3 = load ptr, ptr @l_Lean_instInhabitedExternAttrData, align 8, !tbaa !4
  %4 = load ptr, ptr @l_Lean_getExternAttrData_x3f___closed__1, align 8, !tbaa !4
  %5 = tail call ptr @l_Lean_ParametricAttribute_getParam_x3f___rarg(ptr noundef %3, ptr noundef %4, ptr noundef %0, ptr noundef %1) #6
  %6 = ptrtoint ptr %5 to i64
  %7 = and i64 %6, 1
  %.not.i8 = icmp eq i64 %7, 0
  br i1 %.not.i8, label %lean_obj_tag.exit.thread, label %lean_obj_tag.exit

lean_obj_tag.exit:                                ; preds = %2
  %8 = and i64 %6, 8589934590
  %9 = icmp ne i64 %8, 0
  %spec.select = zext i1 %9 to i8
  br label %lean_dec.exit

lean_obj_tag.exit.thread:                         ; preds = %2
  %10 = getelementptr i8, ptr %5, i64 4
  %.val.i = load i32, ptr %10, align 4
  %11 = icmp ult i32 %.val.i, 16777216
  br i1 %11, label %lean_dec.exit, label %.thread

.thread:                                          ; preds = %lean_obj_tag.exit.thread
  %12 = load i32, ptr %5, align 4, !tbaa !10
  %13 = icmp sgt i32 %12, 1
  br i1 %13, label %14, label %16, !prof !13

14:                                               ; preds = %.thread
  %15 = add nsw i32 %12, -1
  store i32 %15, ptr %5, align 4, !tbaa !10
  br label %lean_dec.exit

16:                                               ; preds = %.thread
  %.not.i = icmp eq i32 %12, 0
  br i1 %.not.i, label %lean_dec.exit, label %17

17:                                               ; preds = %16
  tail call void @lean_dec_ref_cold(ptr noundef nonnull %5) #6
  br label %lean_dec.exit

lean_dec.exit:                                    ; preds = %lean_obj_tag.exit, %14, %16, %17, %lean_obj_tag.exit.thread
  %.0 = phi i8 [ 0, %lean_obj_tag.exit.thread ], [ 1, %17 ], [ 1, %16 ], [ 1, %14 ], [ %spec.select, %lean_obj_tag.exit ]
  ret i8 %.0
}